(dp0
I439741328134799360
(VMaraimMasoud
p1
Vzuhair47
p2
tp3
sI440800798893957120
(VSarzRepublic
p4
VMuhammadAryanpo
p5
tp6
sI439681336559685632
(Vbilalghalib
p7
VBenFranklin06
p8
tp9
sI439821909111222272
(VSarzRepublic
p10
VJhwrr
p11
tp12
sI440392055278149632
(VMaraimMasoud
p13
Vandrew_puente
p14
tp15
sI440148331113631744
(g7
VDouglasPClement
p16
tp17
sI439936096148152320
(g10
VLylaGhan
p18
tp19
sI440790932418756608
(g13
Vmustafakadhum
p20
tp21
s.